target datalayout = "e-m:e-p270:32:32-p271:32:32-p272:64:64-i64:64-i128:128-f80:128-n8:16:32:64-S128"
target triple = "x86_64-pc-linux-gnu"

; Function Attrs: inlinehint nounwind uwtable
define internal float @b2MinFloat(float noundef %0, float noundef %1) #5 {
  %3 = alloca float, align 4
  %4 = alloca float, align 4
  store float %0, ptr %3, align 4, !tbaa !3
  store float %1, ptr %4, align 4, !tbaa !3
  %5 = load float, ptr %3, align 4, !tbaa !3
  %6 = load float, ptr %4, align 4, !tbaa !3
  %7 = fcmp olt float %5, %6
  br i1 %7, label %8, label %10

8:                                                ; preds = %2
  %9 = load float, ptr %3, align 4, !tbaa !3
  br label %12

10:                                               ; preds = %2
  %11 = load float, ptr %4, align 4, !tbaa !3
  br label %12

12:                                               ; preds = %10, %8
  %13 = phi float [ %9, %8 ], [ %11, %10 ]
  ret float %13
}

; Function Attrs: inlinehint nounwind uwtable
define internal float @b2MaxFloat(float noundef %0, float noundef %1) #5 {
  %3 = alloca float, align 4
  %4 = alloca float, align 4
  store float %0, ptr %3, align 4, !tbaa !3
  store float %1, ptr %4, align 4, !tbaa !3
  %5 = load float, ptr %3, align 4, !tbaa !3
  %6 = load float, ptr %4, align 4, !tbaa !3
  %7 = fcmp ogt float %5, %6
  br i1 %7, label %8, label %10

8:                                                ; preds = %2
  %9 = load float, ptr %3, align 4, !tbaa !3
  br label %12

10:                                               ; preds = %2
  %11 = load float, ptr %4, align 4, !tbaa !3
  br label %12

12:                                               ; preds = %10, %8
  %13 = phi float [ %9, %8 ], [ %11, %10 ]
  ret float %13
}

; Function Attrs: inlinehint nounwind uwtable
define internal float @b2AbsFloat(float noundef %0) #5 {
  %2 = alloca float, align 4
  store float %0, ptr %2, align 4, !tbaa !3
  %3 = load float, ptr %2, align 4, !tbaa !3
  %4 = fcmp olt float %3, 0.000000e+00
  br i1 %4, label %5, label %8

5:                                                ; preds = %1
  %6 = load float, ptr %2, align 4, !tbaa !3
  %7 = fneg float %6
  br label %10

8:                                                ; preds = %1
  %9 = load float, ptr %2, align 4, !tbaa !3
  br label %10

10:                                               ; preds = %8, %5
  %11 = phi float [ %7, %5 ], [ %9, %8 ]
  ret float %11
}

; Function Attrs: nounwind uwtable
define float @b2Atan2(float noundef %0, float noundef %1) #0 {
  %3 = alloca float, align 4
  %4 = alloca float, align 4
  %5 = alloca float, align 4
  %6 = alloca float, align 4
  %7 = alloca float, align 4
  %8 = alloca float, align 4
  %9 = alloca float, align 4
  %10 = alloca float, align 4
  %11 = alloca float, align 4
  %12 = alloca float, align 4
  %13 = alloca float, align 4
  %14 = alloca float, align 4
  %15 = alloca float, align 4
  store float %0, ptr %4, align 4, !tbaa !3
  store float %1, ptr %5, align 4, !tbaa !3
  %16 = load float, ptr %5, align 4, !tbaa !3
  %17 = fcmp oeq float %16, 0.000000e+00
  br i1 %17, label %18, label %22

18:                                               ; preds = %2
  %19 = load float, ptr %4, align 4, !tbaa !3
  %20 = fcmp oeq float %19, 0.000000e+00
  br i1 %20, label %21, label %22

21:                                               ; preds = %18
  store float 0.000000e+00, ptr %3, align 4
  br label %81

22:                                               ; preds = %18, %2
  call void @llvm.lifetime.start.p0(i64 4, ptr %6) #8
  %23 = load float, ptr %5, align 4, !tbaa !3
  %24 = call float @b2AbsFloat(float noundef %23)
  store float %24, ptr %6, align 4, !tbaa !3
  call void @llvm.lifetime.start.p0(i64 4, ptr %7) #8
  %25 = load float, ptr %4, align 4, !tbaa !3
  %26 = call float @b2AbsFloat(float noundef %25)
  store float %26, ptr %7, align 4, !tbaa !3
  call void @llvm.lifetime.start.p0(i64 4, ptr %8) #8
  %27 = load float, ptr %7, align 4, !tbaa !3
  %28 = load float, ptr %6, align 4, !tbaa !3
  %29 = call float @b2MaxFloat(float noundef %27, float noundef %28)
  store float %29, ptr %8, align 4, !tbaa !3
  call void @llvm.lifetime.start.p0(i64 4, ptr %9) #8
  %30 = load float, ptr %7, align 4, !tbaa !3
  %31 = load float, ptr %6, align 4, !tbaa !3
  %32 = call float @b2MinFloat(float noundef %30, float noundef %31)
  store float %32, ptr %9, align 4, !tbaa !3
  call void @llvm.lifetime.start.p0(i64 4, ptr %10) #8
  %33 = load float, ptr %9, align 4, !tbaa !3
  %34 = load float, ptr %8, align 4, !tbaa !3
  %35 = fdiv float %33, %34
  store float %35, ptr %10, align 4, !tbaa !3
  call void @llvm.lifetime.start.p0(i64 4, ptr %11) #8
  %36 = load float, ptr %10, align 4, !tbaa !3
  %37 = load float, ptr %10, align 4, !tbaa !3
  %38 = fmul float %36, %37
  store float %38, ptr %11, align 4, !tbaa !3
  call void @llvm.lifetime.start.p0(i64 4, ptr %12) #8
  %39 = load float, ptr %11, align 4, !tbaa !3
  %40 = load float, ptr %10, align 4, !tbaa !3
  %41 = fmul float %39, %40
  store float %41, ptr %12, align 4, !tbaa !3
  call void @llvm.lifetime.start.p0(i64 4, ptr %13) #8
  %42 = load float, ptr %11, align 4, !tbaa !3
  %43 = load float, ptr %11, align 4, !tbaa !3
  %44 = fmul float %42, %43
  store float %44, ptr %13, align 4, !tbaa !3
  call void @llvm.lifetime.start.p0(i64 4, ptr %14) #8
  %45 = load float, ptr %13, align 4, !tbaa !3
  %46 = fmul float 0x3F996FBB40000000, %45
  %47 = fadd float %46, 0x3FC7E986E0000000
  store float %47, ptr %14, align 4, !tbaa !3
  call void @llvm.lifetime.start.p0(i64 4, ptr %15) #8
  %48 = load float, ptr %13, align 4, !tbaa !3
  %49 = fmul float 0xBFB816CDA0000000, %48
  %50 = fsub float %49, 0x3FD541A140000000
  store float %50, ptr %15, align 4, !tbaa !3
  %51 = load float, ptr %14, align 4, !tbaa !3
  %52 = load float, ptr %11, align 4, !tbaa !3
  %53 = fmul float %51, %52
  %54 = load float, ptr %15, align 4, !tbaa !3
  %55 = fadd float %53, %54
  store float %55, ptr %14, align 4, !tbaa !3
  %56 = load float, ptr %14, align 4, !tbaa !3
  %57 = load float, ptr %12, align 4, !tbaa !3
  %58 = fmul float %56, %57
  %59 = load float, ptr %10, align 4, !tbaa !3
  %60 = fadd float %58, %59
  store float %60, ptr %14, align 4, !tbaa !3
  %61 = load float, ptr %7, align 4, !tbaa !3
  %62 = load float, ptr %6, align 4, !tbaa !3
  %63 = fcmp ogt float %61, %62
  br i1 %63, label %64, label %67

64:                                               ; preds = %22
  %65 = load float, ptr %14, align 4, !tbaa !3
  %66 = fsub float 0x3FF921FB60000000, %65
  store float %66, ptr %14, align 4, !tbaa !3
  br label %67

67:                                               ; preds = %64, %22
  %68 = load float, ptr %5, align 4, !tbaa !3
  %69 = fcmp olt float %68, 0.000000e+00
  br i1 %69, label %70, label %73

70:                                               ; preds = %67
  %71 = load float, ptr %14, align 4, !tbaa !3
  %72 = fsub float 0x400921FB60000000, %71
  store float %72, ptr %14, align 4, !tbaa !3
  br label %73

73:                                               ; preds = %70, %67
  %74 = load float, ptr %4, align 4, !tbaa !3
  %75 = fcmp olt float %74, 0.000000e+00
  br i1 %75, label %76, label %79

76:                                               ; preds = %73
  %77 = load float, ptr %14, align 4, !tbaa !3
  %78 = fneg float %77
  store float %78, ptr %14, align 4, !tbaa !3
  br label %79

79:                                               ; preds = %76, %73
  %80 = load float, ptr %14, align 4, !tbaa !3
  store float %80, ptr %3, align 4
  call void @llvm.lifetime.end.p0(i64 4, ptr %15) #8
  call void @llvm.lifetime.end.p0(i64 4, ptr %14) #8
  call void @llvm.lifetime.end.p0(i64 4, ptr %13) #8
  call void @llvm.lifetime.end.p0(i64 4, ptr %12) #8
  call void @llvm.lifetime.end.p0(i64 4, ptr %11) #8
  call void @llvm.lifetime.end.p0(i64 4, ptr %10) #8
  call void @llvm.lifetime.end.p0(i64 4, ptr %9) #8
  call void @llvm.lifetime.end.p0(i64 4, ptr %8) #8
  call void @llvm.lifetime.end.p0(i64 4, ptr %7) #8
  call void @llvm.lifetime.end.p0(i64 4, ptr %6) #8
  br label %81

81:                                               ; preds = %79, %21
  %82 = load float, ptr %3, align 4
  ret float %82
}