; Function Attrs: mustprogress nofree norecurse nosync nounwind willreturn memory(none) uwtable
define float @b2Atan2(float noundef %0, float noundef %1) local_unnamed_addr #0 {
  %3 = fcmp oeq float %1, 0.000000e+00
  %4 = fcmp oeq float %0, 0.000000e+00
  %or.cond = and i1 %4, %3
  br i1 %or.cond, label %31, label %5

5:                                                ; preds = %2
  %6 = fcmp olt float %1, 0.000000e+00
  %7 = fneg float %1
  %8 = select i1 %6, float %7, float %1
  %9 = fcmp olt float %0, 0.000000e+00
  %10 = fneg float %0
  %11 = select i1 %9, float %10, float %0
  %12 = fcmp ogt float %11, %8
  %13 = select i1 %12, float %11, float %8
  %14 = fcmp olt float %11, %8
  %15 = select i1 %14, float %11, float %8
  %16 = fdiv float %15, %13
  %17 = fmul float %16, %16
  %18 = fmul float %16, %17
  %19 = fmul float %17, %17
  %20 = fmul float %19, 0x3F996FBB40000000
  %21 = fadd float %20, 0x3FC7E986E0000000
  %22 = fmul float %19, 0x3FB816CDA0000000
  %23 = fsub float 0xBFD541A140000000, %22
  %24 = fmul float %17, %21
  %25 = fadd float %23, %24
  %26 = fmul float %18, %25
  %27 = fadd float %16, %26
  %28 = fsub float 0x3FF921FB60000000, %27
  %.034 = select i1 %12, float %28, float %27
  %29 = fsub float 0x400921FB60000000, %.034
  %.1 = select i1 %6, float %29, float %.034
  %30 = fneg float %.1
  %.2 = select i1 %9, float %30, float %.1
  br label %31

31:                                               ; preds = %2, %5
  %.0 = phi float [ %.2, %5 ], [ 0.000000e+00, %2 ]
  ret float %.0
}